; Function Attrs: nounwind uwtable
define dso_local i32 @onig_match_with_param(ptr noundef %0, ptr noundef %1, ptr noundef %2, ptr noundef %3, ptr noundef %4, i32 noundef %5, ptr noundef %6) local_unnamed_addr #4 {
  %8 = alloca %struct.MatchArg, align 8
  call void @llvm.lifetime.start.p0(i64 104, ptr nonnull %8) #30
  %9 = and i32 %5, 2048
  %.not = icmp eq i32 %9, 0
  br i1 %.not, label %10, label %adjust_match_param.exit

10:                                               ; preds = %7
  %11 = getelementptr i8, ptr %0, i64 448
  %.val = load ptr, ptr %11, align 8, !tbaa !66
  %12 = getelementptr inbounds nuw i8, ptr %6, i64 48
  store i32 0, ptr %12, align 8, !tbaa !40
  %13 = icmp eq ptr %.val, null
  br i1 %13, label %39, label %14

14:                                               ; preds = %10
  %15 = getelementptr inbounds nuw i8, ptr %.val, i64 24
  %16 = load i32, ptr %15, align 8, !tbaa !68
  %17 = icmp eq i32 %16, 0
  br i1 %17, label %39, label %18

18:                                               ; preds = %14
  %19 = getelementptr inbounds nuw i8, ptr %6, i64 64
  %20 = load i32, ptr %19, align 8, !tbaa !42
  %21 = icmp sgt i32 %16, %20
  br i1 %21, label %22, label %._crit_edge.i

._crit_edge.i:                                    ; preds = %18
  %.phi.trans.insert.i = getelementptr inbounds nuw i8, ptr %6, i64 56
  %.pre.i = load ptr, ptr %.phi.trans.insert.i, align 8, !tbaa !41
  br label %34

22:                                               ; preds = %18
  %23 = sext i32 %16 to i64
  %24 = shl nsw i64 %23, 7
  %25 = getelementptr inbounds nuw i8, ptr %6, i64 56
  %26 = load ptr, ptr %25, align 8, !tbaa !41
  %.not.i = icmp eq ptr %26, null
  br i1 %.not.i, label %29, label %27

27:                                               ; preds = %22
  %28 = tail call ptr @realloc(ptr noundef nonnull %26, i64 noundef %24) #29
  br label %31

29:                                               ; preds = %22
  %30 = tail call noalias ptr @malloc(i64 noundef %24) #28
  br label %31

31:                                               ; preds = %29, %27
  %.019.i = phi ptr [ %28, %27 ], [ %30, %29 ]
  %.not24.i = icmp eq ptr %.019.i, null
  br i1 %.not24.i, label %adjust_match_param.exit, label %32

32:                                               ; preds = %31
  store ptr %.019.i, ptr %25, align 8, !tbaa !41
  %33 = load i32, ptr %15, align 8, !tbaa !68
  store i32 %33, ptr %19, align 8, !tbaa !42
  br label %34

34:                                               ; preds = %32, %._crit_edge.i
  %35 = phi i32 [ %20, %._crit_edge.i ], [ %33, %32 ]
  %36 = phi ptr [ %.pre.i, %._crit_edge.i ], [ %.019.i, %32 ]
  %37 = sext i32 %35 to i64
  %38 = shl nsw i64 %37, 7
  tail call void @llvm.memset.p0.i64(ptr align 8 %36, i8 0, i64 %38, i1 false)
  br label %39

39:                                               ; preds = %34, %14, %10
  store ptr null, ptr %8, align 8, !tbaa !78
  %40 = getelementptr inbounds nuw i8, ptr %0, i64 104
  %41 = load i32, ptr %40, align 8, !tbaa !79
  %42 = or i32 %41, %5
  %43 = getelementptr inbounds nuw i8, ptr %8, i64 12
  store i32 %42, ptr %43, align 4, !tbaa !80
  %44 = getelementptr inbounds nuw i8, ptr %8, i64 16
  store ptr %4, ptr %44, align 8, !tbaa !81
  %45 = getelementptr inbounds nuw i8, ptr %8, i64 32
  store ptr %3, ptr %45, align 8, !tbaa !82
  %46 = load i32, ptr %6, align 8, !tbaa !4
  %47 = getelementptr inbounds nuw i8, ptr %8, i64 40
  store i32 %46, ptr %47, align 8, !tbaa !83
  %48 = getelementptr inbounds nuw i8, ptr %6, i64 8
  %49 = load i64, ptr %48, align 8, !tbaa !11
  %50 = getelementptr inbounds nuw i8, ptr %8, i64 48
  store i64 %49, ptr %50, align 8, !tbaa !84
  %51 = getelementptr inbounds nuw i8, ptr %6, i64 16
  %52 = load i64, ptr %51, align 8, !tbaa !12
  %53 = getelementptr inbounds nuw i8, ptr %8, i64 56
  store i64 %52, ptr %53, align 8, !tbaa !85
  %54 = getelementptr inbounds nuw i8, ptr %8, i64 64
  store i64 0, ptr %54, align 8, !tbaa !86
  %55 = getelementptr inbounds nuw i8, ptr %8, i64 96
  store i64 0, ptr %55, align 8, !tbaa !87
  %56 = getelementptr inbounds nuw i8, ptr %8, i64 72
  store ptr %6, ptr %56, align 8, !tbaa !48
  %57 = getelementptr inbounds nuw i8, ptr %8, i64 80
  store i32 -1, ptr %57, align 8, !tbaa !88
  %58 = getelementptr inbounds nuw i8, ptr %0, i64 48
  %59 = load i32, ptr %58, align 8, !tbaa !70
  %60 = shl i32 %59, 1
  %61 = add i32 %60, 2
  %62 = getelementptr inbounds nuw i8, ptr %8, i64 24
  store i32 %61, ptr %62, align 8, !tbaa !89
  %.not40 = icmp eq ptr %4, null
  br i1 %.not40, label %.thread, label %63

63:                                               ; preds = %39
  %64 = add nsw i32 %59, 1
  %65 = tail call fastcc i32 @onig_region_resize_clear(ptr noundef %4, i32 noundef %64)
  %66 = icmp eq i32 %65, 0
  br i1 %66, label %.thread, label %adjust_match_param.exit

.thread:                                          ; preds = %39, %63
  %67 = and i32 %5, 4096
  %.not41 = icmp eq i32 %67, 0
  br i1 %.not41, label %74, label %68

68:                                               ; preds = %.thread
  %69 = getelementptr inbounds nuw i8, ptr %0, i64 96
  %70 = load ptr, ptr %69, align 8, !tbaa !97
  %71 = getelementptr inbounds nuw i8, ptr %70, i64 136
  %72 = load ptr, ptr %71, align 8, !tbaa !72
  %73 = tail call i32 %72(ptr noundef %1, ptr noundef %2) #30
  %.not42 = icmp eq i32 %73, 0
  br i1 %.not42, label %adjust_match_param.exit, label %74

74:                                               ; preds = %.thread, %68
  %75 = call fastcc i32 @match_at(ptr noundef nonnull %0, ptr noundef %1, ptr noundef %2, ptr noundef %2, ptr noundef %3, ptr noundef nonnull %8)
  %76 = and i32 %5, 16
  %77 = icmp ne i32 %76, 0
  %78 = icmp eq i32 %75, -1
  %or.cond = select i1 %77, i1 %78, i1 false
  %79 = load i32, ptr %57, align 8
  %80 = icmp sgt i32 %79, -1
  %or.cond4 = select i1 %or.cond, i1 %80, i1 false
  %spec.select = select i1 %or.cond4, i32 %79, i32 %75
  %.pre = load ptr, ptr %8, align 8, !tbaa !78
  %.not43 = icmp eq ptr %.pre, null
  br i1 %.not43, label %adjust_match_param.exit, label %81

81:                                               ; preds = %74
  call void @free(ptr noundef nonnull %.pre) #30
  br label %adjust_match_param.exit

adjust_match_param.exit:                          ; preds = %68, %63, %31, %74, %81, %7
  %.034 = phi i32 [ -30, %7 ], [ %spec.select, %81 ], [ %spec.select, %74 ], [ -5, %31 ], [ -400, %68 ], [ %65, %63 ]
  call void @llvm.lifetime.end.p0(i64 104, ptr nonnull %8) #30
  ret i32 %.034
}